target datalayout = "e-m:e-p270:32:32-p271:32:32-p272:64:64-i64:64-i128:128-f80:128-n8:16:32:64-S128"
target triple = "x86_64-pc-linux-gnu"

%class.ErrorHandler = type <{ i32, i32, i8, i8, i8, i8, i8, i8, [2 x i8] }>
%class.File = type { ptr, i64, i8, i32, i8, i8, i32, i8, i8, i8, i8, i8, i64, i8, [2048 x i32], i32, ptr }

@ErrHandler = external global %class.ErrorHandler, align 4

; Function Attrs: mustprogress uwtable
define noundef zeroext i1 @_ZN4File5CloseEv(ptr noundef nonnull align 8 dereferenceable(8256) %0) unnamed_addr #1 align 2 {
  %2 = alloca ptr, align 8
  %3 = alloca i8, align 1
  store ptr %0, ptr %2, align 8
  %4 = load ptr, ptr %2, align 8
  store i8 1, ptr %3, align 1
  %5 = getelementptr inbounds %class.File, ptr %4, i32 0, i32 1
  %6 = load i64, ptr %5, align 8
  %7 = icmp ne i64 %6, -1
  br i1 %7, label %8, label %21

8:                                                ; preds = %1
  %9 = getelementptr inbounds %class.File, ptr %4, i32 0, i32 5
  %10 = load i8, ptr %9, align 1
  %11 = trunc i8 %10 to i1
  br i1 %11, label %19, label %12

12:                                               ; preds = %8
  %13 = getelementptr inbounds %class.File, ptr %4, i32 0, i32 1
  %14 = load i64, ptr %13, align 8
  %15 = trunc i64 %14 to i32
  %16 = call i32 @close(i32 noundef %15)
  %17 = icmp ne i32 %16, -1
  %18 = zext i1 %17 to i8
  store i8 %18, ptr %3, align 1
  br label %19

19:                                               ; preds = %12, %8
  %20 = getelementptr inbounds %class.File, ptr %4, i32 0, i32 1
  store i64 -1, ptr %20, align 8
  br label %21

21:                                               ; preds = %19, %1
  %22 = getelementptr inbounds %class.File, ptr %4, i32 0, i32 3
  store i32 0, ptr %22, align 4
  %23 = load i8, ptr %3, align 1
  %24 = trunc i8 %23 to i1
  br i1 %24, label %32, label %25

25:                                               ; preds = %21
  %26 = getelementptr inbounds %class.File, ptr %4, i32 0, i32 9
  %27 = load i8, ptr %26, align 2
  %28 = trunc i8 %27 to i1
  br i1 %28, label %29, label %32

29:                                               ; preds = %25
  %30 = getelementptr inbounds %class.File, ptr %4, i32 0, i32 14
  %31 = getelementptr inbounds [2048 x i32], ptr %30, i64 0, i64 0
  call void @_ZN12ErrorHandler10CloseErrorEPKw(ptr noundef nonnull align 4 dereferenceable(14) @ErrHandler, ptr noundef %31)
  br label %32

32:                                               ; preds = %29, %25, %21
  %33 = load i8, ptr %3, align 1
  %34 = trunc i8 %33 to i1
  ret i1 %34
}