; Function Attrs: mustprogress uwtable
define noundef zeroext i1 @_ZN4File5CloseEv(ptr noundef nonnull align 8 dereferenceable(8256) %0) unnamed_addr #2 align 2 {
  %2 = getelementptr inbounds i8, ptr %0, i64 8
  %3 = load i64, ptr %2, align 8
  %.not = icmp eq i64 %3, -1
  br i1 %.not, label %.thread, label %5

.thread:                                          ; preds = %1
  %4 = getelementptr inbounds i8, ptr %0, i64 20
  store i32 0, ptr %4, align 4
  br label %20

5:                                                ; preds = %1
  %6 = getelementptr inbounds i8, ptr %0, i64 25
  %7 = load i8, ptr %6, align 1
  %8 = trunc i8 %7 to i1
  br i1 %8, label %.thread5, label %10

.thread5:                                         ; preds = %5
  store i64 -1, ptr %2, align 8
  %9 = getelementptr inbounds i8, ptr %0, i64 20
  store i32 0, ptr %9, align 4
  br label %20

10:                                               ; preds = %5
  %11 = trunc i64 %3 to i32
  %12 = tail call i32 @close(i32 noundef %11)
  %.not7 = icmp eq i32 %12, -1
  store i64 -1, ptr %2, align 8
  %13 = getelementptr inbounds i8, ptr %0, i64 20
  store i32 0, ptr %13, align 4
  br i1 %.not7, label %14, label %20

14:                                               ; preds = %10
  %15 = getelementptr inbounds i8, ptr %0, i64 34
  %16 = load i8, ptr %15, align 2
  %17 = trunc i8 %16 to i1
  br i1 %17, label %18, label %20

18:                                               ; preds = %14
  %19 = getelementptr inbounds i8, ptr %0, i64 52
  tail call void @_ZN12ErrorHandler10CloseErrorEPKw(ptr noundef nonnull align 4 dereferenceable(14) @ErrHandler, ptr noundef nonnull %19)
  br label %20

20:                                               ; preds = %.thread5, %.thread, %18, %14, %10
  %.14 = phi i1 [ true, %.thread ], [ false, %18 ], [ false, %14 ], [ true, %10 ], [ true, %.thread5 ]
  ret i1 %.14
}